; Function Attrs: mustprogress uwtable
define void @_ZN17grpc_event_engine12experimental22WorkStealingThreadPool26WorkStealingThreadPoolImpl3RunEPNS0_11EventEngine7ClosureE(ptr noundef nonnull align 8 dereferenceable(632) %this, ptr noundef %closure) local_unnamed_addr #3 align 2 personality ptr @__gxx_personality_v0 {
entry:
  %0 = tail call align 8 ptr @llvm.threadlocal.address.p0(ptr align 8 @_ZN17grpc_event_engine12experimental13g_local_queueE)
  %1 = load ptr, ptr %0, align 8
  %cmp.not = icmp eq ptr %1, null
  br i1 %cmp.not, label %if.else, label %land.lhs.true

land.lhs.true:                                    ; preds = %entry
  %vtable = load ptr, ptr %1, align 8
  %vfn = getelementptr inbounds i8, ptr %vtable, i64 64
  %2 = load ptr, ptr %vfn, align 8
  %call = tail call noundef ptr %2(ptr noundef nonnull align 8 dereferenceable(8) %1)
  %cmp2 = icmp eq ptr %call, %this
  br i1 %cmp2, label %if.then, label %if.else

if.then:                                          ; preds = %land.lhs.true
  %3 = load ptr, ptr %0, align 8
  %vtable3 = load ptr, ptr %3, align 8
  %vfn4 = getelementptr inbounds i8, ptr %vtable3, i64 48
  %4 = load ptr, ptr %vfn4, align 8
  tail call void %4(ptr noundef nonnull align 8 dereferenceable(8) %3, ptr noundef %closure)
  br label %if.end

if.else:                                          ; preds = %land.lhs.true, %entry
  %queue_ = getelementptr inbounds i8, ptr %this, i64 120
  tail call void @_ZN17grpc_event_engine12experimental14BasicWorkQueue3AddEPNS0_11EventEngine7ClosureE(ptr noundef nonnull align 8 dereferenceable(104) %queue_, ptr noundef %closure)
  br label %if.end

if.end:                                           ; preds = %if.else, %if.then
  %work_signal_ = getelementptr inbounds i8, ptr %this, i64 248
  tail call void @_ZN4absl12lts_202308025Mutex4LockEv(ptr noundef nonnull align 8 dereferenceable(8) %work_signal_)
  %cv_.i = getelementptr inbounds i8, ptr %this, i64 256
  invoke void @_ZN4absl12lts_202308027CondVar6SignalEv(ptr noundef nonnull align 8 dereferenceable(8) %cv_.i)
          to label %invoke.cont.i unwind label %lpad.i

invoke.cont.i:                                    ; preds = %if.end
  invoke void @_ZN4absl12lts_202308025Mutex6UnlockEv(ptr noundef nonnull align 8 dereferenceable(8) %work_signal_)
          to label %_ZN17grpc_event_engine12experimental22WorkStealingThreadPool10WorkSignal6SignalEv.exit unwind label %terminate.lpad.i.i

terminate.lpad.i.i:                               ; preds = %invoke.cont.i
  %5 = landingpad { ptr, i32 }
          catch ptr null
  %6 = extractvalue { ptr, i32 } %5, 0
  tail call void @__clang_call_terminate(ptr %6) #24
  unreachable

lpad.i:                                           ; preds = %if.end
  %7 = landingpad { ptr, i32 }
          cleanup
  invoke void @_ZN4absl12lts_202308025Mutex6UnlockEv(ptr noundef nonnull align 8 dereferenceable(8) %work_signal_)
          to label %_ZN4absl12lts_202308029MutexLockD2Ev.exit2.i unwind label %terminate.lpad.i1.i

terminate.lpad.i1.i:                              ; preds = %lpad.i
  %8 = landingpad { ptr, i32 }
          catch ptr null
  %9 = extractvalue { ptr, i32 } %8, 0
  tail call void @__clang_call_terminate(ptr %9) #24
  unreachable

_ZN4absl12lts_202308029MutexLockD2Ev.exit2.i:     ; preds = %lpad.i
  resume { ptr, i32 } %7

_ZN17grpc_event_engine12experimental22WorkStealingThreadPool10WorkSignal6SignalEv.exit: ; preds = %invoke.cont.i
  ret void
}